; Function Attrs: mustprogress nofree norecurse nosync nounwind willreturn memory(argmem: read) uwtable
define dso_local i64 @tstzrange_subdiff(ptr noundef readonly captures(none) %0) local_unnamed_addr #3 {
  %2 = getelementptr inbounds nuw i8, ptr %0, i64 32
  %3 = load i64, ptr %2, align 8
  %4 = getelementptr inbounds nuw i8, ptr %0, i64 48
  %5 = load i64, ptr %4, align 8
  %6 = sitofp i64 %3 to double
  %7 = sitofp i64 %5 to double
  %8 = fsub double %6, %7
  %9 = fdiv double %8, 1.000000e+06
  %10 = bitcast double %9 to i64
  ret i64 %10
}